; Function Attrs: nounwind uwtable
define hidden ptr @lj_cdata_newref(ptr noundef %0, ptr noundef %1, i32 noundef %2) local_unnamed_addr #0 {
  %4 = add i32 %2, 579010560
  %5 = tail call i32 @lj_ctype_intern(ptr noundef %0, i32 noundef %4, i32 noundef 8) #4
  %6 = getelementptr inbounds nuw i8, ptr %0, i64 16
  %7 = load ptr, ptr %6, align 8, !tbaa !4
  %8 = tail call ptr @lj_mem_newgco(ptr noundef %7, i64 noundef 24) #4
  %9 = getelementptr inbounds nuw i8, ptr %8, i64 9
  store i8 10, ptr %9, align 1, !tbaa !17
  %10 = trunc i32 %5 to i16
  %11 = getelementptr inbounds nuw i8, ptr %8, i64 10
  store i16 %10, ptr %11, align 2, !tbaa !22
  %12 = getelementptr inbounds nuw i8, ptr %8, i64 16
  store ptr %1, ptr %12, align 8, !tbaa !23
  ret ptr %8
}